; Function Attrs: nounwind uwtable
define ptr @l_List_toString___at_Lean_Meta_RecursorInfo_instToString___spec__7(ptr noundef %0) local_unnamed_addr #0 {
  %2 = ptrtoint ptr %0 to i64
  %3 = and i64 %2, 1
  %.not.i = icmp eq i64 %3, 0
  br i1 %.not.i, label %7, label %4

4:                                                ; preds = %1
  %5 = lshr i64 %2, 1
  %6 = trunc i64 %5 to i32
  br label %lean_obj_tag.exit

7:                                                ; preds = %1
  %8 = getelementptr i8, ptr %0, i64 4
  %.val.i = load i32, ptr %8, align 4
  %9 = lshr i32 %.val.i, 24
  br label %lean_obj_tag.exit

lean_obj_tag.exit:                                ; preds = %4, %7
  %.0.i = phi i32 [ %6, %4 ], [ %9, %7 ]
  %10 = icmp eq i32 %.0.i, 0
  br i1 %10, label %11, label %13

11:                                               ; preds = %lean_obj_tag.exit
  %12 = load ptr, ptr @l_List_toString___at_Lean_Meta_RecursorInfo_instToString___spec__1___closed__1, align 8, !tbaa !4
  br label %82

13:                                               ; preds = %lean_obj_tag.exit
  %14 = getelementptr inbounds nuw i8, ptr %0, i64 8
  %15 = getelementptr inbounds nuw i8, ptr %0, i64 16
  %16 = load ptr, ptr %15, align 8, !tbaa !4
  %17 = ptrtoint ptr %16 to i64
  %18 = and i64 %17, 1
  %.not.i22 = icmp eq i64 %18, 0
  br i1 %.not.i22, label %22, label %19

19:                                               ; preds = %13
  %20 = lshr i64 %17, 1
  %21 = trunc i64 %20 to i32
  br label %lean_obj_tag.exit25

22:                                               ; preds = %13
  %23 = getelementptr i8, ptr %16, i64 4
  %.val.i24 = load i32, ptr %23, align 4
  %24 = lshr i32 %.val.i24, 24
  br label %lean_obj_tag.exit25

lean_obj_tag.exit25:                              ; preds = %19, %22
  %.0.i23 = phi i32 [ %21, %19 ], [ %24, %22 ]
  %25 = icmp eq i32 %.0.i23, 0
  %26 = load ptr, ptr %14, align 8, !tbaa !4
  %27 = ptrtoint ptr %26 to i64
  %28 = and i64 %27, 510
  %29 = icmp eq i64 %28, 0
  br i1 %25, label %30, label %31

30:                                               ; preds = %lean_obj_tag.exit25
  %l_List_toString___at_Lean_Meta_RecursorInfo_instToString___spec__7___closed__2.val = load ptr, ptr @l_List_toString___at_Lean_Meta_RecursorInfo_instToString___spec__7___closed__2, align 8
  %l_List_toString___at_Lean_Meta_RecursorInfo_instToString___spec__7___closed__4.val = load ptr, ptr @l_List_toString___at_Lean_Meta_RecursorInfo_instToString___spec__7___closed__4, align 8
  %.1 = select i1 %29, ptr %l_List_toString___at_Lean_Meta_RecursorInfo_instToString___spec__7___closed__2.val, ptr %l_List_toString___at_Lean_Meta_RecursorInfo_instToString___spec__7___closed__4.val
  br label %82

31:                                               ; preds = %lean_obj_tag.exit25
  br i1 %29, label %32, label %57

32:                                               ; preds = %31
  %33 = load ptr, ptr @l_List_toString___at_Lean_Meta_RecursorInfo_instToString___spec__7___closed__1, align 8, !tbaa !4
  br label %34

34:                                               ; preds = %44, %32
  %.015.i = phi ptr [ %16, %32 ], [ %48, %44 ]
  %.0.i26 = phi ptr [ %33, %32 ], [ %55, %44 ]
  %35 = ptrtoint ptr %.015.i to i64
  %36 = and i64 %35, 1
  %.not.i.i = icmp eq i64 %36, 0
  br i1 %.not.i.i, label %40, label %37

37:                                               ; preds = %34
  %38 = lshr i64 %35, 1
  %39 = trunc i64 %38 to i32
  br label %lean_obj_tag.exit.i

40:                                               ; preds = %34
  %41 = getelementptr i8, ptr %.015.i, i64 4
  %.val.i.i = load i32, ptr %41, align 4
  %42 = lshr i32 %.val.i.i, 24
  br label %lean_obj_tag.exit.i

lean_obj_tag.exit.i:                              ; preds = %40, %37
  %.0.i.i = phi i32 [ %39, %37 ], [ %42, %40 ]
  %43 = icmp eq i32 %.0.i.i, 0
  br i1 %43, label %l_List_foldl___at_Lean_Meta_RecursorInfo_instToString___spec__8.exit, label %44

44:                                               ; preds = %lean_obj_tag.exit.i
  %45 = getelementptr inbounds nuw i8, ptr %.015.i, i64 8
  %46 = load ptr, ptr %45, align 8, !tbaa !4
  %47 = getelementptr inbounds nuw i8, ptr %.015.i, i64 16
  %48 = load ptr, ptr %47, align 8, !tbaa !4
  %49 = load ptr, ptr @l_List_foldl___at_Lean_Meta_RecursorInfo_instToString___spec__2___closed__1, align 8, !tbaa !4
  %50 = tail call ptr @lean_string_append(ptr noundef %.0.i26, ptr noundef %49) #6
  %51 = ptrtoint ptr %46 to i64
  %52 = and i64 %51, 510
  %53 = icmp eq i64 %52, 0
  %l_List_foldl___at_Lean_Meta_RecursorInfo_instToString___spec__8___closed__1.val.i = load ptr, ptr @l_List_foldl___at_Lean_Meta_RecursorInfo_instToString___spec__8___closed__1, align 8
  %l_List_foldl___at_Lean_Meta_RecursorInfo_instToString___spec__8___closed__2.val.i = load ptr, ptr @l_List_foldl___at_Lean_Meta_RecursorInfo_instToString___spec__8___closed__2, align 8
  %54 = select i1 %53, ptr %l_List_foldl___at_Lean_Meta_RecursorInfo_instToString___spec__8___closed__1.val.i, ptr %l_List_foldl___at_Lean_Meta_RecursorInfo_instToString___spec__8___closed__2.val.i
  %55 = tail call ptr @lean_string_append(ptr noundef %50, ptr noundef %54) #6
  br label %34

l_List_foldl___at_Lean_Meta_RecursorInfo_instToString___spec__8.exit: ; preds = %lean_obj_tag.exit.i
  %56 = tail call ptr @lean_string_push(ptr noundef %.0.i26, i32 noundef 93) #6
  br label %82

57:                                               ; preds = %31
  %58 = load ptr, ptr @l_List_toString___at_Lean_Meta_RecursorInfo_instToString___spec__7___closed__3, align 8, !tbaa !4
  br label %59

59:                                               ; preds = %69, %57
  %.015.i27 = phi ptr [ %16, %57 ], [ %73, %69 ]
  %.0.i28 = phi ptr [ %58, %57 ], [ %80, %69 ]
  %60 = ptrtoint ptr %.015.i27 to i64
  %61 = and i64 %60, 1
  %.not.i.i29 = icmp eq i64 %61, 0
  br i1 %.not.i.i29, label %65, label %62

62:                                               ; preds = %59
  %63 = lshr i64 %60, 1
  %64 = trunc i64 %63 to i32
  br label %lean_obj_tag.exit.i30

65:                                               ; preds = %59
  %66 = getelementptr i8, ptr %.015.i27, i64 4
  %.val.i.i34 = load i32, ptr %66, align 4
  %67 = lshr i32 %.val.i.i34, 24
  br label %lean_obj_tag.exit.i30

lean_obj_tag.exit.i30:                            ; preds = %65, %62
  %.0.i.i31 = phi i32 [ %64, %62 ], [ %67, %65 ]
  %68 = icmp eq i32 %.0.i.i31, 0
  br i1 %68, label %l_List_foldl___at_Lean_Meta_RecursorInfo_instToString___spec__8.exit35, label %69

69:                                               ; preds = %lean_obj_tag.exit.i30
  %70 = getelementptr inbounds nuw i8, ptr %.015.i27, i64 8
  %71 = load ptr, ptr %70, align 8, !tbaa !4
  %72 = getelementptr inbounds nuw i8, ptr %.015.i27, i64 16
  %73 = load ptr, ptr %72, align 8, !tbaa !4
  %74 = load ptr, ptr @l_List_foldl___at_Lean_Meta_RecursorInfo_instToString___spec__2___closed__1, align 8, !tbaa !4
  %75 = tail call ptr @lean_string_append(ptr noundef %.0.i28, ptr noundef %74) #6
  %76 = ptrtoint ptr %71 to i64
  %77 = and i64 %76, 510
  %78 = icmp eq i64 %77, 0
  %l_List_foldl___at_Lean_Meta_RecursorInfo_instToString___spec__8___closed__1.val.i32 = load ptr, ptr @l_List_foldl___at_Lean_Meta_RecursorInfo_instToString___spec__8___closed__1, align 8
  %l_List_foldl___at_Lean_Meta_RecursorInfo_instToString___spec__8___closed__2.val.i33 = load ptr, ptr @l_List_foldl___at_Lean_Meta_RecursorInfo_instToString___spec__8___closed__2, align 8
  %79 = select i1 %78, ptr %l_List_foldl___at_Lean_Meta_RecursorInfo_instToString___spec__8___closed__1.val.i32, ptr %l_List_foldl___at_Lean_Meta_RecursorInfo_instToString___spec__8___closed__2.val.i33
  %80 = tail call ptr @lean_string_append(ptr noundef %75, ptr noundef %79) #6
  br label %59

l_List_foldl___at_Lean_Meta_RecursorInfo_instToString___spec__8.exit35: ; preds = %lean_obj_tag.exit.i30
  %81 = tail call ptr @lean_string_push(ptr noundef %.0.i28, i32 noundef 93) #6
  br label %82

82:                                               ; preds = %30, %l_List_foldl___at_Lean_Meta_RecursorInfo_instToString___spec__8.exit35, %l_List_foldl___at_Lean_Meta_RecursorInfo_instToString___spec__8.exit, %11
  %.0 = phi ptr [ %12, %11 ], [ %.1, %30 ], [ %56, %l_List_foldl___at_Lean_Meta_RecursorInfo_instToString___spec__8.exit ], [ %81, %l_List_foldl___at_Lean_Meta_RecursorInfo_instToString___spec__8.exit35 ]
  ret ptr %.0
}